; Function Attrs: nounwind uwtable
define ptr @l_ExceptT_instMonad___rarg___lambda__4(ptr noundef %0, ptr readnone captures(none) %1, ptr readnone captures(none) %2, ptr noundef %3, ptr noundef %4) #0 {
  %6 = ptrtoint ptr %0 to i64
  %7 = and i64 %6, 1
  %.not = icmp eq i64 %7, 0
  br i1 %.not, label %8, label %lean_inc.exit17

8:                                                ; preds = %5
  %.val.i = load i32, ptr %0, align 4, !tbaa !4
  %9 = icmp sgt i32 %.val.i, 0
  br i1 %9, label %10, label %12, !prof !13

10:                                               ; preds = %8
  %11 = add nuw i32 %.val.i, 1
  store i32 %11, ptr %0, align 4, !tbaa !4
  br label %lean_inc.exit17

12:                                               ; preds = %8
  %.not.i = icmp eq i32 %.val.i, 0
  br i1 %.not.i, label %lean_inc.exit17, label %13

13:                                               ; preds = %12
  tail call void @lean_inc_ref_cold(ptr noundef nonnull %0) #5
  br label %lean_inc.exit17

lean_inc.exit17:                                  ; preds = %13, %12, %10, %5
  tail call void @lean_inc_heartbeat() #5
  %14 = tail call noalias ptr @mi_malloc_small(i64 noundef 40) #5
  %15 = icmp eq ptr %14, null
  br i1 %15, label %16, label %lean_alloc_closure.exit

16:                                               ; preds = %lean_inc.exit17
  tail call void @lean_internal_panic_out_of_memory() #6
  unreachable

lean_alloc_closure.exit:                          ; preds = %lean_inc.exit17
  %17 = getelementptr inbounds nuw i8, ptr %14, i64 4
  store i32 1, ptr %14, align 4, !tbaa !4
  store i32 -184549336, ptr %17, align 4
  %18 = getelementptr inbounds nuw i8, ptr %14, i64 8
  store ptr @l_ExceptT_instMonad___rarg___lambda__3, ptr %18, align 8, !tbaa !9
  %19 = getelementptr inbounds nuw i8, ptr %14, i64 16
  store i16 3, ptr %19, align 8, !tbaa !11
  %20 = getelementptr inbounds nuw i8, ptr %14, i64 18
  store i16 2, ptr %20, align 2, !tbaa !11
  %21 = getelementptr inbounds nuw i8, ptr %14, i64 24
  store ptr %4, ptr %21, align 8, !tbaa !9
  %22 = getelementptr inbounds nuw i8, ptr %14, i64 32
  store ptr %0, ptr %22, align 8, !tbaa !9
  %23 = getelementptr inbounds nuw i8, ptr %0, i64 16
  %24 = load ptr, ptr %23, align 8, !tbaa !9
  %25 = ptrtoint ptr %24 to i64
  %26 = and i64 %25, 1
  %.not22 = icmp eq i64 %26, 0
  br i1 %.not22, label %27, label %lean_inc.exit

27:                                               ; preds = %lean_alloc_closure.exit
  %.val.i18 = load i32, ptr %24, align 4, !tbaa !4
  %28 = icmp sgt i32 %.val.i18, 0
  br i1 %28, label %29, label %31, !prof !13

29:                                               ; preds = %27
  %30 = add nuw i32 %.val.i18, 1
  store i32 %30, ptr %24, align 4, !tbaa !4
  br label %lean_inc.exit

31:                                               ; preds = %27
  %.not.i19 = icmp eq i32 %.val.i18, 0
  br i1 %.not.i19, label %lean_inc.exit, label %32

32:                                               ; preds = %31
  tail call void @lean_inc_ref_cold(ptr noundef nonnull %24) #5
  br label %lean_inc.exit

lean_inc.exit:                                    ; preds = %32, %31, %29, %lean_alloc_closure.exit
  tail call void @lean_inc_heartbeat() #5
  %33 = tail call noalias ptr @mi_malloc_small(i64 noundef 56) #5
  %34 = icmp eq ptr %33, null
  br i1 %34, label %35, label %lean_alloc_closure.exit21

35:                                               ; preds = %lean_inc.exit
  tail call void @lean_internal_panic_out_of_memory() #6
  unreachable

lean_alloc_closure.exit21:                        ; preds = %lean_inc.exit
  %36 = getelementptr inbounds nuw i8, ptr %33, i64 4
  store i32 1, ptr %33, align 4, !tbaa !4
  store i32 -184549320, ptr %36, align 4
  %37 = getelementptr inbounds nuw i8, ptr %33, i64 8
  store ptr @l_ExceptT_bindCont___at_ExceptT_instMonad___spec__1___rarg, ptr %37, align 8, !tbaa !9
  %38 = getelementptr inbounds nuw i8, ptr %33, i64 16
  store i16 5, ptr %38, align 8, !tbaa !11
  %39 = getelementptr inbounds nuw i8, ptr %33, i64 18
  store i16 4, ptr %39, align 2, !tbaa !11
  %40 = getelementptr inbounds nuw i8, ptr %33, i64 24
  store ptr %0, ptr %40, align 8, !tbaa !9
  %41 = getelementptr inbounds nuw i8, ptr %33, i64 32
  store ptr inttoptr (i64 1 to ptr), ptr %41, align 8, !tbaa !9
  %42 = getelementptr inbounds nuw i8, ptr %33, i64 40
  store ptr inttoptr (i64 1 to ptr), ptr %42, align 8, !tbaa !9
  %43 = getelementptr inbounds nuw i8, ptr %33, i64 48
  store ptr %14, ptr %43, align 8, !tbaa !9
  %44 = tail call ptr @lean_apply_4(ptr noundef %24, ptr noundef nonnull inttoptr (i64 1 to ptr), ptr noundef nonnull inttoptr (i64 1 to ptr), ptr noundef %3, ptr noundef nonnull %33) #5
  ret ptr %44
}